target datalayout = "e-m:e-p270:32:32-p271:32:32-p272:64:64-i64:64-i128:128-f80:128-n8:16:32:64-S128"
target triple = "x86_64-pc-linux-gnu"

%struct._packet_info = type { ptr, ptr, i32, i32, %struct.nstime_t, %struct.nstime_t, %struct.nstime_t, i8, ptr, ptr, ptr, ptr, %struct._address, %struct._address, %struct._address, %struct._address, %struct._address, %struct._address, i32, ptr, i8, [3 x i8], %struct.anon, i32, i32, i32, i32, ptr, i8, ptr, ptr, i16, i16, i32, i32, i16, i32, i32, ptr, ptr, ptr, i8, i8, i16, i16, i16, i32, i16, i16, ptr, ptr, ptr, ptr, ptr, i32, i32 }
%struct.nstime_t = type { i64, i32 }
%struct._address = type { i32, i32, ptr, ptr }
%struct.anon = type { i8, [3 x i8] }

@hf_gadu_gadu_status_descr = internal global i32 0, align 4
@hf_gadu_gadu_new_status_status = internal global i32 0, align 4
@.str.297 = private unnamed_addr constant [19 x i8] c"New status (< 8.0)\00", align 1

; Function Attrs: null_pointer_is_valid sspstrong uwtable
define internal i32 @gadu_gadu_strsize(ptr noundef %0, i32 noundef %1) #0 {
  %3 = alloca ptr, align 8
  %4 = alloca i32, align 4
  %5 = alloca i32, align 4
  store ptr %0, ptr %3, align 8
  store i32 %1, ptr %4, align 4
  call void @llvm.lifetime.start.p0(i64 4, ptr %5) #6
  %6 = load ptr, ptr %3, align 8
  %7 = load i32, ptr %4, align 4
  %8 = call i32 @tvb_find_uint8(ptr noundef %6, i32 noundef %7, i32 noundef -1, i8 noundef zeroext 0)
  store i32 %8, ptr %5, align 4
  %9 = load i32, ptr %5, align 4
  %10 = icmp eq i32 %9, -1
  br i1 %10, label %11, label %15

11:                                               ; preds = %2
  %12 = load ptr, ptr %3, align 8
  %13 = call i32 @tvb_captured_length(ptr noundef %12)
  %14 = sub i32 %13, 1
  store i32 %14, ptr %5, align 4
  br label %15

15:                                               ; preds = %11, %2
  %16 = load i32, ptr %5, align 4
  %17 = load i32, ptr %4, align 4
  %18 = sub i32 %16, %17
  %19 = add i32 %18, 1
  call void @llvm.lifetime.end.p0(i64 4, ptr %5) #6
  ret i32 %19
}

; Function Attrs: null_pointer_is_valid sspstrong uwtable
define internal i32 @dissect_gadu_gadu_stringz_cp1250(ptr noundef %0, i32 noundef %1, ptr noundef %2, i32 noundef %3) #0 {
  %5 = alloca ptr, align 8
  %6 = alloca i32, align 4
  %7 = alloca ptr, align 8
  %8 = alloca i32, align 4
  %9 = alloca i32, align 4
  store ptr %0, ptr %5, align 8
  store i32 %1, ptr %6, align 4
  store ptr %2, ptr %7, align 8
  store i32 %3, ptr %8, align 4
  call void @llvm.lifetime.start.p0(i64 4, ptr %9) #6
  %10 = load ptr, ptr %5, align 8
  %11 = load i32, ptr %8, align 4
  %12 = call i32 @gadu_gadu_strsize(ptr noundef %10, i32 noundef %11)
  store i32 %12, ptr %9, align 4
  %13 = load ptr, ptr %7, align 8
  %14 = load i32, ptr %6, align 4
  %15 = load ptr, ptr %5, align 8
  %16 = load i32, ptr %8, align 4
  %17 = load i32, ptr %9, align 4
  %18 = call ptr @proto_tree_add_item(ptr noundef %13, i32 noundef %14, ptr noundef %15, i32 noundef %16, i32 noundef %17, i32 noundef 42)
  %19 = load i32, ptr %8, align 4
  %20 = load i32, ptr %9, align 4
  %21 = add i32 %19, %20
  call void @llvm.lifetime.end.p0(i64 4, ptr %9) #6
  ret i32 %21
}

; Function Attrs: nounwind null_pointer_is_valid sspstrong uwtable
define internal zeroext i1 @gadu_gadu_status_has_descr(i32 noundef %0) #4 {
  %2 = alloca i32, align 4
  store i32 %0, ptr %2, align 4
  %3 = load i32, ptr %2, align 4
  %4 = icmp eq i32 %3, 21
  br i1 %4, label %20, label %5

5:                                                ; preds = %1
  %6 = load i32, ptr %2, align 4
  %7 = icmp eq i32 %6, 24
  br i1 %7, label %20, label %8

8:                                                ; preds = %5
  %9 = load i32, ptr %2, align 4
  %10 = icmp eq i32 %9, 4
  br i1 %10, label %20, label %11

11:                                               ; preds = %8
  %12 = load i32, ptr %2, align 4
  %13 = icmp eq i32 %12, 5
  br i1 %13, label %20, label %14

14:                                               ; preds = %11
  %15 = load i32, ptr %2, align 4
  %16 = icmp eq i32 %15, 34
  br i1 %16, label %20, label %17

17:                                               ; preds = %14
  %18 = load i32, ptr %2, align 4
  %19 = icmp eq i32 %18, 22
  br label %20

20:                                               ; preds = %17, %14, %11, %8, %5, %1
  %21 = phi i1 [ true, %14 ], [ true, %11 ], [ true, %8 ], [ true, %5 ], [ true, %1 ], [ %19, %17 ]
  ret i1 %21
}

; Function Attrs: null_pointer_is_valid sspstrong uwtable
define internal i32 @dissect_gadu_gadu_new_status(ptr noundef %0, ptr noundef %1, ptr noundef %2, i32 noundef %3) #0 {
  %5 = alloca ptr, align 8
  %6 = alloca ptr, align 8
  %7 = alloca ptr, align 8
  %8 = alloca i32, align 4
  %9 = alloca i32, align 4
  store ptr %0, ptr %5, align 8
  store ptr %1, ptr %6, align 8
  store ptr %2, ptr %7, align 8
  store i32 %3, ptr %8, align 4
  call void @llvm.lifetime.start.p0(i64 4, ptr %9) #6
  %10 = load ptr, ptr %6, align 8
  %11 = getelementptr inbounds nuw %struct._packet_info, ptr %10, i32 0, i32 1
  %12 = load ptr, ptr %11, align 8
  call void @col_set_str(ptr noundef %12, i32 noundef 25, ptr noundef @.str.297)
  %13 = load ptr, ptr %5, align 8
  %14 = load i32, ptr %8, align 4
  %15 = call i32 @tvb_get_letohl(ptr noundef %13, i32 noundef %14)
  store i32 %15, ptr %9, align 4
  %16 = load ptr, ptr %7, align 8
  %17 = load i32, ptr @hf_gadu_gadu_new_status_status, align 4
  %18 = load ptr, ptr %5, align 8
  %19 = load i32, ptr %8, align 4
  %20 = call ptr @proto_tree_add_item(ptr noundef %16, i32 noundef %17, ptr noundef %18, i32 noundef %19, i32 noundef 4, i32 noundef -2147483648)
  %21 = load i32, ptr %8, align 4
  %22 = add i32 %21, 4
  store i32 %22, ptr %8, align 4
  %23 = load i32, ptr %9, align 4
  %24 = and i32 %23, 255
  %25 = call zeroext i1 @gadu_gadu_status_has_descr(i32 noundef %24)
  br i1 %25, label %26, label %32

26:                                               ; preds = %4
  %27 = load ptr, ptr %5, align 8
  %28 = load i32, ptr @hf_gadu_gadu_status_descr, align 4
  %29 = load ptr, ptr %7, align 8
  %30 = load i32, ptr %8, align 4
  %31 = call i32 @dissect_gadu_gadu_stringz_cp1250(ptr noundef %27, i32 noundef %28, ptr noundef %29, i32 noundef %30)
  store i32 %31, ptr %8, align 4
  br label %32

32:                                               ; preds = %26, %4
  %33 = load i32, ptr %8, align 4
  call void @llvm.lifetime.end.p0(i64 4, ptr %9) #6
  ret i32 %33
}