; Function Attrs: null_pointer_is_valid sspstrong uwtable
define internal fastcc i32 @dissect_gadu_gadu_new_status(ptr noundef %0, ptr %.8.val, ptr noundef %1) unnamed_addr #0 {
  tail call void @col_set_str(ptr noundef %.8.val, i32 noundef 25, ptr noundef nonnull @.str.297)
  %3 = tail call i32 @tvb_get_letohl(ptr noundef %0, i32 noundef 8)
  %4 = load i32, ptr @hf_gadu_gadu_new_status_status, align 4
  %5 = tail call ptr @proto_tree_add_item(ptr noundef %1, i32 noundef %4, ptr noundef %0, i32 noundef 8, i32 noundef 4, i32 noundef -2147483648)
  %6 = and i32 %3, 254
  %7 = icmp eq i32 %6, 4
  br i1 %7, label %8, label %switch.early.test.i

switch.early.test.i:                              ; preds = %2
  %trunc.i = trunc i32 %3 to i8
  switch i8 %trunc.i, label %gadu_gadu_status_has_descr.exit [
    i8 34, label %8
    i8 24, label %8
    i8 21, label %8
    i8 22, label %8
  ]

8:                                                ; preds = %switch.early.test.i, %switch.early.test.i, %switch.early.test.i, %switch.early.test.i, %2
  %9 = load i32, ptr @hf_gadu_gadu_status_descr, align 4
  %10 = tail call i32 @tvb_find_uint8(ptr noundef %0, i32 noundef range(i32 12, 27) 12, i32 noundef -1, i8 noundef zeroext 0)
  %11 = icmp eq i32 %10, -1
  br i1 %11, label %12, label %dissect_gadu_gadu_stringz_cp1250.exit

12:                                               ; preds = %8
  %13 = tail call i32 @tvb_captured_length(ptr noundef %0)
  %14 = add i32 %13, -1
  br label %dissect_gadu_gadu_stringz_cp1250.exit

dissect_gadu_gadu_stringz_cp1250.exit:            ; preds = %8, %12
  %.0.i.i = phi i32 [ %14, %12 ], [ %10, %8 ]
  %15 = add i32 %.0.i.i, -11
  %16 = tail call ptr @proto_tree_add_item(ptr noundef %1, i32 noundef %9, ptr noundef %0, i32 noundef 12, i32 noundef %15, i32 noundef 42)
  %17 = add i32 %.0.i.i, 1
  br label %gadu_gadu_status_has_descr.exit

gadu_gadu_status_has_descr.exit:                  ; preds = %switch.early.test.i, %dissect_gadu_gadu_stringz_cp1250.exit
  %.0 = phi i32 [ %17, %dissect_gadu_gadu_stringz_cp1250.exit ], [ 12, %switch.early.test.i ]
  ret i32 %.0
}